target datalayout = "e-m:e-p270:32:32-p271:32:32-p272:64:64-i64:64-i128:128-f80:128-n8:16:32:64-S128"
target triple = "x86_64-pc-linux-gnu"

%"class.Json::Value" = type { %"union.Json::Value::ValueHolder", %struct.anon, %"class.Json::Value::Comments", i64, i64 }
%"union.Json::Value::ValueHolder" = type { i64 }
%struct.anon = type { i16, [2 x i8] }
%"class.Json::Value::Comments" = type { %"class.std::unique_ptr" }
%"class.std::unique_ptr" = type { %"struct.std::__uniq_ptr_data" }
%"struct.std::__uniq_ptr_data" = type { %"class.std::__uniq_ptr_impl" }
%"class.std::__uniq_ptr_impl" = type { %"class.std::tuple" }
%"class.std::tuple" = type { %"struct.std::_Tuple_impl" }
%"struct.std::_Tuple_impl" = type { %"struct.std::_Head_base.1" }
%"struct.std::_Head_base.1" = type { ptr }
%"class.std::__cxx11::basic_string" = type { %"struct.std::__cxx11::basic_string<char>::_Alloc_hider", i64, %union.anon.2 }
%"struct.std::__cxx11::basic_string<char>::_Alloc_hider" = type { ptr }
%union.anon.2 = type { i64, [8 x i8] }
%"class.std::__cxx11::basic_ostringstream" = type { %"class.std::basic_ostream.base", %"class.std::__cxx11::basic_stringbuf", %"class.std::basic_ios" }
%"class.std::basic_ostream.base" = type { ptr }
%"class.std::__cxx11::basic_stringbuf" = type { %"class.std::basic_streambuf", i32, %"class.std::__cxx11::basic_string" }
%"class.std::basic_streambuf" = type { ptr, ptr, ptr, ptr, ptr, ptr, ptr, %"class.std::locale" }
%"class.std::locale" = type { ptr }
%"class.std::basic_ios" = type { %"class.std::ios_base", ptr, i8, i8, ptr, ptr, ptr, ptr }
%"class.std::ios_base" = type { ptr, i64, i64, i32, i32, i32, ptr, %"struct.std::ios_base::_Words", [8 x %"struct.std::ios_base::_Words"], i32, ptr, %"class.std::locale" }
%"struct.std::ios_base::_Words" = type { ptr, i64 }

@.str.25 = private unnamed_addr constant [35 x i8] c"Value is not convertible to float.\00", align 1

; Function Attrs: mustprogress nounwind uwtable
define internal noundef double @_ZN4JsonL15integerToDoubleEm(i64 noundef %0) #5 {
  %2 = alloca i64, align 8
  store i64 %0, ptr %2, align 8
  %3 = load i64, ptr %2, align 8
  %4 = udiv i64 %3, 2
  %5 = sitofp i64 %4 to double
  %6 = load i64, ptr %2, align 8
  %7 = and i64 %6, 1
  %8 = sitofp i64 %7 to double
  %9 = call double @llvm.fmuladd.f64(double %5, double 2.000000e+00, double %8)
  ret double %9
}

; Function Attrs: mustprogress nounwind uwtable
define dso_local noundef i32 @_ZNK4Json5Value4typeEv(ptr noundef nonnull align 8 dereferenceable(40) %0) #5 align 2 {
  %2 = alloca ptr, align 8
  store ptr %0, ptr %2, align 8
  %3 = load ptr, ptr %2, align 8
  %4 = getelementptr inbounds %"class.Json::Value", ptr %3, i32 0, i32 1
  %5 = load i16, ptr %4, align 8
  %6 = and i16 %5, 255
  %7 = zext i16 %6 to i32
  ret i32 %7
}

; Function Attrs: mustprogress uwtable
define dso_local noundef float @_ZNK4Json5Value7asFloatEv(ptr noundef nonnull align 8 dereferenceable(40) %0) #4 align 2 personality ptr @__gxx_personality_v0 {
  %2 = alloca float, align 4
  %3 = alloca ptr, align 8
  %4 = alloca %"class.std::__cxx11::basic_ostringstream", align 8
  %5 = alloca ptr, align 8
  %6 = alloca i32, align 4
  %7 = alloca %"class.std::__cxx11::basic_string", align 8
  store ptr %0, ptr %3, align 8
  %8 = load ptr, ptr %3, align 8
  %9 = call noundef i32 @_ZNK4Json5Value4typeEv(ptr noundef nonnull align 8 dereferenceable(40) %8)
  switch i32 %9, label %29 [
    i32 1, label %10
    i32 2, label %14
    i32 3, label %19
    i32 0, label %23
    i32 5, label %24
  ]

10:                                               ; preds = %1
  %11 = getelementptr inbounds %"class.Json::Value", ptr %8, i32 0, i32 0
  %12 = load i64, ptr %11, align 8
  %13 = sitofp i64 %12 to float
  store float %13, ptr %2, align 4
  br label %46

14:                                               ; preds = %1
  %15 = getelementptr inbounds %"class.Json::Value", ptr %8, i32 0, i32 0
  %16 = load i64, ptr %15, align 8
  %17 = call noundef double @_ZN4JsonL15integerToDoubleEm(i64 noundef %16)
  %18 = fptrunc double %17 to float
  store float %18, ptr %2, align 4
  br label %46

19:                                               ; preds = %1
  %20 = getelementptr inbounds %"class.Json::Value", ptr %8, i32 0, i32 0
  %21 = load double, ptr %20, align 8
  %22 = fptrunc double %21 to float
  store float %22, ptr %2, align 4
  br label %46

23:                                               ; preds = %1
  store float 0.000000e+00, ptr %2, align 4
  br label %46

24:                                               ; preds = %1
  %25 = getelementptr inbounds %"class.Json::Value", ptr %8, i32 0, i32 0
  %26 = load i8, ptr %25, align 8
  %27 = trunc i8 %26 to i1
  %28 = select i1 %27, float 1.000000e+00, float 0.000000e+00
  store float %28, ptr %2, align 4
  br label %46

29:                                               ; preds = %1
  br label %30

30:                                               ; preds = %29
  br label %31

31:                                               ; preds = %30
  call void @_ZNSt7__cxx1119basic_ostringstreamIcSt11char_traitsIcESaIcEEC1Ev(ptr noundef nonnull align 8 dereferenceable(112) %4)
  %32 = invoke noundef nonnull align 8 dereferenceable(8) ptr @_ZStlsISt11char_traitsIcEERSt13basic_ostreamIcT_ES5_PKc(ptr noundef nonnull align 8 dereferenceable(8) %4, ptr noundef @.str.25)
          to label %33 unwind label %36

33:                                               ; preds = %31
  invoke void @_ZNKSt7__cxx1119basic_ostringstreamIcSt11char_traitsIcESaIcEE3strEv(ptr dead_on_unwind writable sret(%"class.std::__cxx11::basic_string") align 8 %7, ptr noundef nonnull align 8 dereferenceable(112) %4)
          to label %34 unwind label %36

34:                                               ; preds = %33
  invoke void @_ZN4Json15throwLogicErrorERKNSt7__cxx1112basic_stringIcSt11char_traitsIcESaIcEEE(ptr noundef nonnull align 8 dereferenceable(32) %7) #18
          to label %35 unwind label %40

35:                                               ; preds = %34
  unreachable

36:                                               ; preds = %33, %31
  %37 = landingpad { ptr, i32 }
          cleanup
  %38 = extractvalue { ptr, i32 } %37, 0
  store ptr %38, ptr %5, align 8
  %39 = extractvalue { ptr, i32 } %37, 1
  store i32 %39, ptr %6, align 4
  br label %44

40:                                               ; preds = %34
  %41 = landingpad { ptr, i32 }
          cleanup
  %42 = extractvalue { ptr, i32 } %41, 0
  store ptr %42, ptr %5, align 8
  %43 = extractvalue { ptr, i32 } %41, 1
  store i32 %43, ptr %6, align 4
  call void @_ZNSt7__cxx1112basic_stringIcSt11char_traitsIcESaIcEED1Ev(ptr noundef nonnull align 8 dereferenceable(32) %7) #3
  br label %44

44:                                               ; preds = %40, %36
  call void @_ZNSt7__cxx1119basic_ostringstreamIcSt11char_traitsIcESaIcEED1Ev(ptr noundef nonnull align 8 dereferenceable(112) %4) #3
  br label %48

45:                                               ; No predecessors!
  call void @llvm.trap()
  unreachable

46:                                               ; preds = %24, %23, %19, %14, %10
  %47 = load float, ptr %2, align 4
  ret float %47

48:                                               ; preds = %44
  %49 = load ptr, ptr %5, align 8
  %50 = load i32, ptr %6, align 4
  %51 = insertvalue { ptr, i32 } poison, ptr %49, 0
  %52 = insertvalue { ptr, i32 } %51, i32 %50, 1
  resume { ptr, i32 } %52
}