; Function Attrs: mustprogress uwtable
define dso_local noundef float @_ZNK4Json5Value7asFloatEv(ptr nocapture noundef nonnull readonly align 8 dereferenceable(40) %0) local_unnamed_addr #10 align 2 personality ptr @__gxx_personality_v0 {
  %2 = alloca %"class.std::__cxx11::basic_ostringstream", align 8
  %3 = alloca %"class.std::__cxx11::basic_string", align 8
  %4 = getelementptr inbounds i8, ptr %0, i64 8
  %5 = load i16, ptr %4, align 8
  %trunc = trunc i16 %5 to i8
  switch i8 %trunc, label %24 [
    i8 1, label %6
    i8 2, label %9
    i8 3, label %17
    i8 0, label %34
    i8 5, label %20
  ]

6:                                                ; preds = %1
  %7 = load i64, ptr %0, align 8
  %8 = sitofp i64 %7 to float
  br label %34

9:                                                ; preds = %1
  %10 = load i64, ptr %0, align 8
  %11 = lshr i64 %10, 1
  %12 = sitofp i64 %11 to double
  %13 = and i64 %10, 1
  %14 = sitofp i64 %13 to double
  %15 = tail call noundef double @llvm.fmuladd.f64(double %12, double 2.000000e+00, double %14)
  %16 = fptrunc double %15 to float
  br label %34

17:                                               ; preds = %1
  %18 = load double, ptr %0, align 8
  %19 = fptrunc double %18 to float
  br label %34

20:                                               ; preds = %1
  %21 = load i8, ptr %0, align 8
  %22 = and i8 %21, 1
  %.not = icmp eq i8 %22, 0
  %23 = select i1 %.not, float 0.000000e+00, float 1.000000e+00
  br label %34

24:                                               ; preds = %1
  call void @_ZNSt7__cxx1119basic_ostringstreamIcSt11char_traitsIcESaIcEEC1Ev(ptr noundef nonnull align 8 dereferenceable(112) %2)
  %25 = invoke noundef nonnull align 8 dereferenceable(8) ptr @_ZStlsISt11char_traitsIcEERSt13basic_ostreamIcT_ES5_PKc(ptr noundef nonnull align 8 dereferenceable(8) %2, ptr noundef nonnull @.str.25)
          to label %26 unwind label %29

26:                                               ; preds = %24
  invoke void @_ZNKSt7__cxx1119basic_ostringstreamIcSt11char_traitsIcESaIcEE3strEv(ptr dead_on_unwind nonnull writable sret(%"class.std::__cxx11::basic_string") align 8 %3, ptr noundef nonnull align 8 dereferenceable(112) %2)
          to label %27 unwind label %29

27:                                               ; preds = %26
  invoke void @_ZN4Json15throwLogicErrorERKNSt7__cxx1112basic_stringIcSt11char_traitsIcESaIcEEE(ptr noundef nonnull align 8 dereferenceable(32) %3) #37
          to label %28 unwind label %31

28:                                               ; preds = %27
  unreachable

29:                                               ; preds = %26, %24
  %30 = landingpad { ptr, i32 }
          cleanup
  br label %33

31:                                               ; preds = %27
  %32 = landingpad { ptr, i32 }
          cleanup
  call void @_ZNSt7__cxx1112basic_stringIcSt11char_traitsIcESaIcEED1Ev(ptr noundef nonnull align 8 dereferenceable(32) %3) #35
  br label %33

33:                                               ; preds = %31, %29
  %.pn = phi { ptr, i32 } [ %32, %31 ], [ %30, %29 ]
  call void @_ZNSt7__cxx1119basic_ostringstreamIcSt11char_traitsIcESaIcEED1Ev(ptr noundef nonnull align 8 dereferenceable(112) %2) #35
  resume { ptr, i32 } %.pn

34:                                               ; preds = %1, %20, %17, %9, %6
  %.04 = phi float [ %23, %20 ], [ %19, %17 ], [ %16, %9 ], [ %8, %6 ], [ 0.000000e+00, %1 ]
  ret float %.04
}